target datalayout = "e-m:e-p270:32:32-p271:32:32-p272:64:64-i64:64-i128:128-f80:128-n8:16:32:64-S128"
target triple = "x86_64-pc-linux-gnu"

%struct.APEContext = type { ptr, ptr, %struct.BswapDSPContext, %struct.LLAudDSPContext, i32, i32, i32, i32, i32, i32, i32, i32, i32, i32, %struct.APEPredictor, %struct.APEPredictor64, ptr, i32, [2 x ptr], ptr, i32, [2 x ptr], i32, [3 x ptr], %struct.APERangecoder, %struct.APERice, %struct.APERice, [3 x [2 x %struct.APEFilter]], %struct.GetBitContext, ptr, ptr, i32, ptr, i32, i32, ptr, ptr, ptr, ptr }
%struct.BswapDSPContext = type { ptr, ptr }
%struct.LLAudDSPContext = type { ptr, ptr }
%struct.APEPredictor = type { ptr, [2 x i32], [2 x i32], [2 x i32], [2 x [4 x i32]], [2 x [5 x i32]], [562 x i32], i32 }
%struct.APEPredictor64 = type { ptr, [2 x i64], [2 x i64], [2 x i64], [2 x [4 x i64]], [2 x [5 x i64]], [562 x i64] }
%struct.APERangecoder = type { i32, i32, i32, i32 }
%struct.APERice = type { i32, i32 }
%struct.APEFilter = type { ptr, ptr, ptr, ptr, i32 }
%struct.GetBitContext = type { ptr, ptr, i32, i32, i32 }

; Function Attrs: nounwind uwtable
define internal void @entropy_decode_mono_3860(ptr noundef %0, i32 noundef %1) #1 {
  %3 = alloca ptr, align 8
  %4 = alloca i32, align 4
  %5 = alloca ptr, align 8
  store ptr %0, ptr %3, align 8, !tbaa !29
  store i32 %1, ptr %4, align 4, !tbaa !32
  call void @llvm.lifetime.start.p0(i64 8, ptr %5) #11
  %6 = load ptr, ptr %3, align 8, !tbaa !29
  %7 = getelementptr inbounds nuw %struct.APEContext, ptr %6, i32 0, i32 18
  %8 = getelementptr inbounds [2 x ptr], ptr %7, i64 0, i64 0
  %9 = load ptr, ptr %8, align 8, !tbaa !72
  store ptr %9, ptr %5, align 8, !tbaa !72
  br label %10

10:                                               ; preds = %14, %2
  %11 = load i32, ptr %4, align 4, !tbaa !32
  %12 = add nsw i32 %11, -1
  store i32 %12, ptr %4, align 4, !tbaa !32
  %13 = icmp ne i32 %11, 0
  br i1 %13, label %14, label %23

14:                                               ; preds = %10
  %15 = load ptr, ptr %3, align 8, !tbaa !29
  %16 = load ptr, ptr %3, align 8, !tbaa !29
  %17 = getelementptr inbounds nuw %struct.APEContext, ptr %16, i32 0, i32 28
  %18 = load ptr, ptr %3, align 8, !tbaa !29
  %19 = getelementptr inbounds nuw %struct.APEContext, ptr %18, i32 0, i32 26
  %20 = call i32 @ape_decode_value_3860(ptr noundef %15, ptr noundef %17, ptr noundef %19)
  %21 = load ptr, ptr %5, align 8, !tbaa !72
  %22 = getelementptr inbounds nuw i32, ptr %21, i32 1
  store ptr %22, ptr %5, align 8, !tbaa !72
  store i32 %20, ptr %21, align 4, !tbaa !32
  br label %10, !llvm.loop !110

23:                                               ; preds = %10
  call void @llvm.lifetime.end.p0(i64 8, ptr %5) #11
  ret void
}