; Function Attrs: nounwind uwtable
define internal void @entropy_decode_mono_3860(ptr noundef captures(none) %0, i32 noundef %1) #1 {
  %.not6 = icmp eq i32 %1, 0
  br i1 %.not6, label %._crit_edge, label %.lr.ph

.lr.ph:                                           ; preds = %2
  %3 = getelementptr inbounds nuw i8, ptr %0, i64 7160
  %4 = load ptr, ptr %3, align 8, !tbaa !85
  %5 = getelementptr inbounds nuw i8, ptr %0, i64 7512
  %6 = getelementptr inbounds nuw i8, ptr %0, i64 7264
  br label %7

7:                                                ; preds = %.lr.ph, %7
  %.08 = phi ptr [ %4, %.lr.ph ], [ %10, %7 ]
  %.057 = phi i32 [ %1, %.lr.ph ], [ %8, %7 ]
  %8 = add nsw i32 %.057, -1
  %9 = tail call fastcc i32 @ape_decode_value_3860(ptr noundef nonnull %0, ptr noundef nonnull %5, ptr noundef nonnull %6)
  %10 = getelementptr inbounds nuw i8, ptr %.08, i64 4
  store i32 %9, ptr %.08, align 4, !tbaa !61
  %.not = icmp eq i32 %8, 0
  br i1 %.not, label %._crit_edge, label %7, !llvm.loop !104

._crit_edge:                                      ; preds = %7, %2
  ret void
}